target datalayout = "e-m:e-p270:32:32-p271:32:32-p272:64:64-i64:64-i128:128-f80:128-n8:16:32:64-S128"
target triple = "x86_64-pc-linux-gnu"

%struct.Nwk_Obj_t_ = type { ptr, ptr, ptr, %union.anon, i32, i32, i32, i32, float, float, float, i32, i32, i32, ptr }
%union.anon = type { ptr }
%struct.Nwk_Man_t_ = type { ptr, ptr, ptr, ptr, ptr, [5 x i32], i32, ptr, ptr, ptr, ptr, ptr, i32, i32, i32, i32, i32 }
%struct.Vec_Ptr_t_ = type { i32, i32, ptr }

; Function Attrs: inlinehint nounwind uwtable
define internal void @Vec_PtrGrow(ptr noundef %0, i32 noundef %1) #4 {
  %3 = alloca ptr, align 8
  %4 = alloca i32, align 4
  store ptr %0, ptr %3, align 8, !tbaa !107
  store i32 %1, ptr %4, align 4, !tbaa !3
  %5 = load ptr, ptr %3, align 8, !tbaa !107
  %6 = getelementptr inbounds nuw %struct.Vec_Ptr_t_, ptr %5, i32 0, i32 0
  %7 = load i32, ptr %6, align 8, !tbaa !115
  %8 = load i32, ptr %4, align 4, !tbaa !3
  %9 = icmp sge i32 %7, %8
  br i1 %9, label %10, label %11

10:                                               ; preds = %2
  br label %36

11:                                               ; preds = %2
  %12 = load ptr, ptr %3, align 8, !tbaa !107
  %13 = getelementptr inbounds nuw %struct.Vec_Ptr_t_, ptr %12, i32 0, i32 2
  %14 = load ptr, ptr %13, align 8, !tbaa !113
  %15 = icmp ne ptr %14, null
  br i1 %15, label %16, label %24

16:                                               ; preds = %11
  %17 = load ptr, ptr %3, align 8, !tbaa !107
  %18 = getelementptr inbounds nuw %struct.Vec_Ptr_t_, ptr %17, i32 0, i32 2
  %19 = load ptr, ptr %18, align 8, !tbaa !113
  %20 = load i32, ptr %4, align 4, !tbaa !3
  %21 = sext i32 %20 to i64
  %22 = mul i64 8, %21
  %23 = call ptr @realloc(ptr noundef %19, i64 noundef %22) #15
  br label %29

24:                                               ; preds = %11
  %25 = load i32, ptr %4, align 4, !tbaa !3
  %26 = sext i32 %25 to i64
  %27 = mul i64 8, %26
  %28 = call noalias ptr @malloc(i64 noundef %27) #12
  br label %29

29:                                               ; preds = %24, %16
  %30 = phi ptr [ %23, %16 ], [ %28, %24 ]
  %31 = load ptr, ptr %3, align 8, !tbaa !107
  %32 = getelementptr inbounds nuw %struct.Vec_Ptr_t_, ptr %31, i32 0, i32 2
  store ptr %30, ptr %32, align 8, !tbaa !113
  %33 = load i32, ptr %4, align 4, !tbaa !3
  %34 = load ptr, ptr %3, align 8, !tbaa !107
  %35 = getelementptr inbounds nuw %struct.Vec_Ptr_t_, ptr %34, i32 0, i32 0
  store i32 %33, ptr %35, align 8, !tbaa !115
  br label %36

36:                                               ; preds = %29, %10
  ret void
}

; Function Attrs: inlinehint nounwind uwtable
define internal i32 @Nwk_ObjFanoutNum(ptr noundef %0) #4 {
  %2 = alloca ptr, align 8
  store ptr %0, ptr %2, align 8, !tbaa !86
  %3 = load ptr, ptr %2, align 8, !tbaa !86
  %4 = getelementptr inbounds nuw %struct.Nwk_Obj_t_, ptr %3, i32 0, i32 12
  %5 = load i32, ptr %4, align 8, !tbaa !105
  ret i32 %5
}

; Function Attrs: inlinehint nounwind uwtable
define internal void @Vec_PtrPush(ptr noundef %0, ptr noundef %1) #4 {
  %3 = alloca ptr, align 8
  %4 = alloca ptr, align 8
  store ptr %0, ptr %3, align 8, !tbaa !107
  store ptr %1, ptr %4, align 8, !tbaa !114
  %5 = load ptr, ptr %3, align 8, !tbaa !107
  %6 = getelementptr inbounds nuw %struct.Vec_Ptr_t_, ptr %5, i32 0, i32 1
  %7 = load i32, ptr %6, align 4, !tbaa !111
  %8 = load ptr, ptr %3, align 8, !tbaa !107
  %9 = getelementptr inbounds nuw %struct.Vec_Ptr_t_, ptr %8, i32 0, i32 0
  %10 = load i32, ptr %9, align 8, !tbaa !115
  %11 = icmp eq i32 %7, %10
  br i1 %11, label %12, label %26

12:                                               ; preds = %2
  %13 = load ptr, ptr %3, align 8, !tbaa !107
  %14 = getelementptr inbounds nuw %struct.Vec_Ptr_t_, ptr %13, i32 0, i32 0
  %15 = load i32, ptr %14, align 8, !tbaa !115
  %16 = icmp slt i32 %15, 16
  br i1 %16, label %17, label %19

17:                                               ; preds = %12
  %18 = load ptr, ptr %3, align 8, !tbaa !107
  call void @Vec_PtrGrow(ptr noundef %18, i32 noundef 16)
  br label %25

19:                                               ; preds = %12
  %20 = load ptr, ptr %3, align 8, !tbaa !107
  %21 = load ptr, ptr %3, align 8, !tbaa !107
  %22 = getelementptr inbounds nuw %struct.Vec_Ptr_t_, ptr %21, i32 0, i32 0
  %23 = load i32, ptr %22, align 8, !tbaa !115
  %24 = mul nsw i32 2, %23
  call void @Vec_PtrGrow(ptr noundef %20, i32 noundef %24)
  br label %25

25:                                               ; preds = %19, %17
  br label %26

26:                                               ; preds = %25, %2
  %27 = load ptr, ptr %4, align 8, !tbaa !114
  %28 = load ptr, ptr %3, align 8, !tbaa !107
  %29 = getelementptr inbounds nuw %struct.Vec_Ptr_t_, ptr %28, i32 0, i32 2
  %30 = load ptr, ptr %29, align 8, !tbaa !113
  %31 = load ptr, ptr %3, align 8, !tbaa !107
  %32 = getelementptr inbounds nuw %struct.Vec_Ptr_t_, ptr %31, i32 0, i32 1
  %33 = load i32, ptr %32, align 4, !tbaa !111
  %34 = add nsw i32 %33, 1
  store i32 %34, ptr %32, align 4, !tbaa !111
  %35 = sext i32 %33 to i64
  %36 = getelementptr inbounds ptr, ptr %30, i64 %35
  store ptr %27, ptr %36, align 8, !tbaa !114
  ret void
}

; Function Attrs: inlinehint nounwind uwtable
define internal void @Nwk_ObjSetTravIdCurrent(ptr noundef %0) #4 {
  %2 = alloca ptr, align 8
  store ptr %0, ptr %2, align 8, !tbaa !86
  %3 = load ptr, ptr %2, align 8, !tbaa !86
  %4 = getelementptr inbounds nuw %struct.Nwk_Obj_t_, ptr %3, i32 0, i32 0
  %5 = load ptr, ptr %4, align 8, !tbaa !97
  %6 = getelementptr inbounds nuw %struct.Nwk_Man_t_, ptr %5, i32 0, i32 12
  %7 = load i32, ptr %6, align 8, !tbaa !98
  %8 = load ptr, ptr %2, align 8, !tbaa !86
  %9 = getelementptr inbounds nuw %struct.Nwk_Obj_t_, ptr %8, i32 0, i32 6
  store i32 %7, ptr %9, align 8, !tbaa !96
  ret void
}

; Function Attrs: inlinehint nounwind uwtable
define internal i32 @Nwk_ObjIsTravIdCurrent(ptr noundef %0) #4 {
  %2 = alloca ptr, align 8
  store ptr %0, ptr %2, align 8, !tbaa !86
  %3 = load ptr, ptr %2, align 8, !tbaa !86
  %4 = getelementptr inbounds nuw %struct.Nwk_Obj_t_, ptr %3, i32 0, i32 6
  %5 = load i32, ptr %4, align 8, !tbaa !96
  %6 = load ptr, ptr %2, align 8, !tbaa !86
  %7 = getelementptr inbounds nuw %struct.Nwk_Obj_t_, ptr %6, i32 0, i32 0
  %8 = load ptr, ptr %7, align 8, !tbaa !97
  %9 = getelementptr inbounds nuw %struct.Nwk_Man_t_, ptr %8, i32 0, i32 12
  %10 = load i32, ptr %9, align 8, !tbaa !98
  %11 = icmp eq i32 %5, %10
  %12 = zext i1 %11 to i32
  ret i32 %12
}

; Function Attrs: inlinehint nounwind uwtable
define internal i32 @Nwk_ObjIsNode(ptr noundef %0) #4 {
  %2 = alloca ptr, align 8
  store ptr %0, ptr %2, align 8, !tbaa !86
  %3 = load ptr, ptr %2, align 8, !tbaa !86
  %4 = getelementptr inbounds nuw %struct.Nwk_Obj_t_, ptr %3, i32 0, i32 4
  %5 = load i32, ptr %4, align 8
  %6 = and i32 %5, 7
  %7 = icmp eq i32 %6, 3
  %8 = zext i1 %7 to i32
  ret i32 %8
}

; Function Attrs: inlinehint nounwind uwtable
define internal ptr @Vec_PtrEntry(ptr noundef %0, i32 noundef %1) #4 {
  %3 = alloca ptr, align 8
  %4 = alloca i32, align 4
  store ptr %0, ptr %3, align 8, !tbaa !107
  store i32 %1, ptr %4, align 4, !tbaa !3
  %5 = load ptr, ptr %3, align 8, !tbaa !107
  %6 = getelementptr inbounds nuw %struct.Vec_Ptr_t_, ptr %5, i32 0, i32 2
  %7 = load ptr, ptr %6, align 8, !tbaa !113
  %8 = load i32, ptr %4, align 4, !tbaa !3
  %9 = sext i32 %8 to i64
  %10 = getelementptr inbounds ptr, ptr %7, i64 %9
  %11 = load ptr, ptr %10, align 8, !tbaa !114
  ret ptr %11
}

; Function Attrs: inlinehint nounwind uwtable
define internal i32 @Vec_PtrSize(ptr noundef %0) #4 {
  %2 = alloca ptr, align 8
  store ptr %0, ptr %2, align 8, !tbaa !107
  %3 = load ptr, ptr %2, align 8, !tbaa !107
  %4 = getelementptr inbounds nuw %struct.Vec_Ptr_t_, ptr %3, i32 0, i32 1
  %5 = load i32, ptr %4, align 4, !tbaa !111
  ret i32 %5
}

; Function Attrs: inlinehint nounwind uwtable
define internal void @Vec_PtrClear(ptr noundef %0) #4 {
  %2 = alloca ptr, align 8
  store ptr %0, ptr %2, align 8, !tbaa !107
  %3 = load ptr, ptr %2, align 8, !tbaa !107
  %4 = getelementptr inbounds nuw %struct.Vec_Ptr_t_, ptr %3, i32 0, i32 1
  store i32 0, ptr %4, align 4, !tbaa !111
  ret void
}

; Function Attrs: nounwind uwtable
define void @Nwk_ManCollectCircle(ptr noundef %0, ptr noundef %1, i32 noundef %2) #0 {
  %4 = alloca ptr, align 8
  %5 = alloca ptr, align 8
  %6 = alloca i32, align 4
  %7 = alloca ptr, align 8
  %8 = alloca ptr, align 8
  %9 = alloca i32, align 4
  %10 = alloca i32, align 4
  store ptr %0, ptr %4, align 8, !tbaa !107
  store ptr %1, ptr %5, align 8, !tbaa !107
  store i32 %2, ptr %6, align 4, !tbaa !3
  call void @llvm.lifetime.start.p0(i64 8, ptr %7) #11
  call void @llvm.lifetime.start.p0(i64 8, ptr %8) #11
  call void @llvm.lifetime.start.p0(i64 4, ptr %9) #11
  call void @llvm.lifetime.start.p0(i64 4, ptr %10) #11
  %11 = load ptr, ptr %5, align 8, !tbaa !107
  call void @Vec_PtrClear(ptr noundef %11)
  store i32 0, ptr %9, align 4, !tbaa !3
  br label %12

12:                                               ; preds = %104, %3
  %13 = load i32, ptr %9, align 4, !tbaa !3
  %14 = load ptr, ptr %4, align 8, !tbaa !107
  %15 = call i32 @Vec_PtrSize(ptr noundef %14)
  %16 = icmp slt i32 %13, %15
  br i1 %16, label %17, label %21

17:                                               ; preds = %12
  %18 = load ptr, ptr %4, align 8, !tbaa !107
  %19 = load i32, ptr %9, align 4, !tbaa !3
  %20 = call ptr @Vec_PtrEntry(ptr noundef %18, i32 noundef %19)
  store ptr %20, ptr %7, align 8, !tbaa !86
  br label %21

21:                                               ; preds = %17, %12
  %22 = phi i1 [ false, %12 ], [ true, %17 ]
  br i1 %22, label %23, label %107

23:                                               ; preds = %21
  store i32 0, ptr %10, align 4, !tbaa !3
  br label %24

24:                                               ; preds = %55, %23
  %25 = load i32, ptr %10, align 4, !tbaa !3
  %26 = load ptr, ptr %7, align 8, !tbaa !86
  %27 = getelementptr inbounds nuw %struct.Nwk_Obj_t_, ptr %26, i32 0, i32 11
  %28 = load i32, ptr %27, align 4, !tbaa !88
  %29 = icmp slt i32 %25, %28
  br i1 %29, label %30, label %39

30:                                               ; preds = %24
  %31 = load ptr, ptr %7, align 8, !tbaa !86
  %32 = getelementptr inbounds nuw %struct.Nwk_Obj_t_, ptr %31, i32 0, i32 14
  %33 = load ptr, ptr %32, align 8, !tbaa !94
  %34 = load i32, ptr %10, align 4, !tbaa !3
  %35 = sext i32 %34 to i64
  %36 = getelementptr inbounds ptr, ptr %33, i64 %35
  %37 = load ptr, ptr %36, align 8, !tbaa !86
  store ptr %37, ptr %8, align 8, !tbaa !86
  %38 = icmp ne ptr %37, null
  br label %39

39:                                               ; preds = %30, %24
  %40 = phi i1 [ false, %24 ], [ %38, %30 ]
  br i1 %40, label %41, label %58

41:                                               ; preds = %39
  %42 = load ptr, ptr %8, align 8, !tbaa !86
  %43 = call i32 @Nwk_ObjIsNode(ptr noundef %42)
  %44 = icmp ne i32 %43, 0
  br i1 %44, label %46, label %45

45:                                               ; preds = %41
  br label %55

46:                                               ; preds = %41
  %47 = load ptr, ptr %8, align 8, !tbaa !86
  %48 = call i32 @Nwk_ObjIsTravIdCurrent(ptr noundef %47)
  %49 = icmp ne i32 %48, 0
  br i1 %49, label %50, label %51

50:                                               ; preds = %46
  br label %55

51:                                               ; preds = %46
  %52 = load ptr, ptr %8, align 8, !tbaa !86
  call void @Nwk_ObjSetTravIdCurrent(ptr noundef %52)
  %53 = load ptr, ptr %5, align 8, !tbaa !107
  %54 = load ptr, ptr %8, align 8, !tbaa !86
  call void @Vec_PtrPush(ptr noundef %53, ptr noundef %54)
  br label %55

55:                                               ; preds = %51, %50, %45
  %56 = load i32, ptr %10, align 4, !tbaa !3
  %57 = add nsw i32 %56, 1
  store i32 %57, ptr %10, align 4, !tbaa !3
  br label %24, !llvm.loop !108

58:                                               ; preds = %39
  store i32 0, ptr %10, align 4, !tbaa !3
  br label %59

59:                                               ; preds = %100, %58
  %60 = load i32, ptr %10, align 4, !tbaa !3
  %61 = load ptr, ptr %7, align 8, !tbaa !86
  %62 = getelementptr inbounds nuw %struct.Nwk_Obj_t_, ptr %61, i32 0, i32 12
  %63 = load i32, ptr %62, align 8, !tbaa !105
  %64 = icmp slt i32 %60, %63
  br i1 %64, label %65, label %78

65:                                               ; preds = %59
  %66 = load ptr, ptr %7, align 8, !tbaa !86
  %67 = getelementptr inbounds nuw %struct.Nwk_Obj_t_, ptr %66, i32 0, i32 14
  %68 = load ptr, ptr %67, align 8, !tbaa !94
  %69 = load ptr, ptr %7, align 8, !tbaa !86
  %70 = getelementptr inbounds nuw %struct.Nwk_Obj_t_, ptr %69, i32 0, i32 11
  %71 = load i32, ptr %70, align 4, !tbaa !88
  %72 = load i32, ptr %10, align 4, !tbaa !3
  %73 = add nsw i32 %71, %72
  %74 = sext i32 %73 to i64
  %75 = getelementptr inbounds ptr, ptr %68, i64 %74
  %76 = load ptr, ptr %75, align 8, !tbaa !86
  store ptr %76, ptr %8, align 8, !tbaa !86
  %77 = icmp ne ptr %76, null
  br label %78

78:                                               ; preds = %65, %59
  %79 = phi i1 [ false, %59 ], [ %77, %65 ]
  br i1 %79, label %80, label %103

80:                                               ; preds = %78
  %81 = load ptr, ptr %8, align 8, !tbaa !86
  %82 = call i32 @Nwk_ObjIsNode(ptr noundef %81)
  %83 = icmp ne i32 %82, 0
  br i1 %83, label %85, label %84

84:                                               ; preds = %80
  br label %100

85:                                               ; preds = %80
  %86 = load ptr, ptr %8, align 8, !tbaa !86
  %87 = call i32 @Nwk_ObjIsTravIdCurrent(ptr noundef %86)
  %88 = icmp ne i32 %87, 0
  br i1 %88, label %89, label %90

89:                                               ; preds = %85
  br label %100

90:                                               ; preds = %85
  %91 = load ptr, ptr %8, align 8, !tbaa !86
  call void @Nwk_ObjSetTravIdCurrent(ptr noundef %91)
  %92 = load ptr, ptr %8, align 8, !tbaa !86
  %93 = call i32 @Nwk_ObjFanoutNum(ptr noundef %92)
  %94 = load i32, ptr %6, align 4, !tbaa !3
  %95 = icmp sgt i32 %93, %94
  br i1 %95, label %96, label %97

96:                                               ; preds = %90
  br label %100

97:                                               ; preds = %90
  %98 = load ptr, ptr %5, align 8, !tbaa !107
  %99 = load ptr, ptr %8, align 8, !tbaa !86
  call void @Vec_PtrPush(ptr noundef %98, ptr noundef %99)
  br label %100

100:                                              ; preds = %97, %96, %89, %84
  %101 = load i32, ptr %10, align 4, !tbaa !3
  %102 = add nsw i32 %101, 1
  store i32 %102, ptr %10, align 4, !tbaa !3
  br label %59, !llvm.loop !109

103:                                              ; preds = %78
  br label %104

104:                                              ; preds = %103
  %105 = load i32, ptr %9, align 4, !tbaa !3
  %106 = add nsw i32 %105, 1
  store i32 %106, ptr %9, align 4, !tbaa !3
  br label %12, !llvm.loop !110

107:                                              ; preds = %21
  call void @llvm.lifetime.end.p0(i64 4, ptr %10) #11
  call void @llvm.lifetime.end.p0(i64 4, ptr %9) #11
  call void @llvm.lifetime.end.p0(i64 8, ptr %8) #11
  call void @llvm.lifetime.end.p0(i64 8, ptr %7) #11
  ret void
}