; Function Attrs: nounwind uwtable
define void @Nwk_ManCollectCircle(ptr noundef readonly captures(none) %0, ptr noundef captures(none) initializes((4, 8)) %1, i32 noundef %2) local_unnamed_addr #0 {
  %4 = getelementptr inbounds nuw i8, ptr %1, i64 4
  store i32 0, ptr %4, align 4, !tbaa !105
  %5 = getelementptr i8, ptr %0, i64 4
  %.val4664 = load i32, ptr %5, align 4, !tbaa !105
  %6 = icmp sgt i32 %.val4664, 0
  br i1 %6, label %.lr.ph66, label %.critedge

.lr.ph66:                                         ; preds = %3
  %7 = getelementptr i8, ptr %0, i64 8
  %.phi.trans.insert.i = getelementptr inbounds nuw i8, ptr %1, i64 8
  br label %8

8:                                                ; preds = %.lr.ph66, %.critedge4
  %9 = phi i32 [ 0, %.lr.ph66 ], [ %114, %.critedge4 ]
  %indvars.iv68 = phi i64 [ 0, %.lr.ph66 ], [ %indvars.iv.next69, %.critedge4 ]
  %.val47 = load ptr, ptr %7, align 8, !tbaa !107
  %10 = getelementptr inbounds nuw ptr, ptr %.val47, i64 %indvars.iv68
  %11 = load ptr, ptr %10, align 8, !tbaa !108
  %12 = getelementptr inbounds nuw i8, ptr %11, i64 72
  %13 = getelementptr inbounds nuw i8, ptr %11, i64 60
  %14 = load i32, ptr %13, align 4, !tbaa !98
  %15 = icmp sgt i32 %14, 0
  br i1 %15, label %.lr.ph, label %.critedge2

.lr.ph:                                           ; preds = %8, %55
  %16 = phi i32 [ %56, %55 ], [ %14, %8 ]
  %17 = phi i32 [ %57, %55 ], [ %9, %8 ]
  %indvars.iv = phi i64 [ %indvars.iv.next, %55 ], [ 0, %8 ]
  %18 = load ptr, ptr %12, align 8, !tbaa !99
  %19 = getelementptr inbounds nuw ptr, ptr %18, i64 %indvars.iv
  %20 = load ptr, ptr %19, align 8, !tbaa !100
  %.not = icmp eq ptr %20, null
  br i1 %.not, label %.critedge2, label %21

21:                                               ; preds = %.lr.ph
  %22 = getelementptr i8, ptr %20, i64 32
  %.val40 = load i32, ptr %22, align 8
  %23 = and i32 %.val40, 7
  %.not55 = icmp eq i32 %23, 3
  br i1 %.not55, label %24, label %55

24:                                               ; preds = %21
  %.val43 = load ptr, ptr %20, align 8, !tbaa !83
  %25 = getelementptr i8, ptr %20, i64 40
  %.val44 = load i32, ptr %25, align 8, !tbaa !89
  %26 = getelementptr i8, ptr %.val43, i64 104
  %.val43.val = load i32, ptr %26, align 8, !tbaa !90
  %.not56 = icmp eq i32 %.val44, %.val43.val
  br i1 %.not56, label %55, label %27

27:                                               ; preds = %24
  store i32 %.val43.val, ptr %25, align 8, !tbaa !89
  %28 = load i32, ptr %1, align 8, !tbaa !109
  %29 = icmp eq i32 %17, %28
  br i1 %29, label %30, label %.Vec_PtrGrow.exit11_crit_edge.i

.Vec_PtrGrow.exit11_crit_edge.i:                  ; preds = %27
  %.pre.i = load ptr, ptr %.phi.trans.insert.i, align 8, !tbaa !107
  br label %Vec_PtrPush.exit

30:                                               ; preds = %27
  %31 = icmp slt i32 %17, 16
  br i1 %31, label %32, label %39

32:                                               ; preds = %30
  %33 = load ptr, ptr %.phi.trans.insert.i, align 8, !tbaa !107
  %.not9.i.i = icmp eq ptr %33, null
  br i1 %.not9.i.i, label %36, label %34

34:                                               ; preds = %32
  %35 = tail call dereferenceable_or_null(128) ptr @realloc(ptr noundef nonnull %33, i64 noundef 128) #22
  br label %Vec_PtrGrow.exit.i

36:                                               ; preds = %32
  %37 = tail call noalias dereferenceable_or_null(128) ptr @malloc(i64 noundef 128) #21
  br label %Vec_PtrGrow.exit.i

Vec_PtrGrow.exit.i:                               ; preds = %36, %34
  %38 = phi ptr [ %35, %34 ], [ %37, %36 ]
  store ptr %38, ptr %.phi.trans.insert.i, align 8, !tbaa !107
  store i32 16, ptr %1, align 8, !tbaa !109
  br label %Vec_PtrPush.exit

39:                                               ; preds = %30
  %40 = shl nuw nsw i32 %17, 1
  %41 = load ptr, ptr %.phi.trans.insert.i, align 8, !tbaa !107
  %.not9.i10.i = icmp eq ptr %41, null
  %42 = zext nneg i32 %40 to i64
  %43 = shl nuw nsw i64 %42, 3
  br i1 %.not9.i10.i, label %46, label %44

44:                                               ; preds = %39
  %45 = tail call ptr @realloc(ptr noundef nonnull %41, i64 noundef %43) #22
  br label %48

46:                                               ; preds = %39
  %47 = tail call noalias ptr @malloc(i64 noundef %43) #21
  br label %48

48:                                               ; preds = %46, %44
  %49 = phi ptr [ %45, %44 ], [ %47, %46 ]
  store ptr %49, ptr %.phi.trans.insert.i, align 8, !tbaa !107
  store i32 %40, ptr %1, align 8, !tbaa !109
  br label %Vec_PtrPush.exit

Vec_PtrPush.exit:                                 ; preds = %.Vec_PtrGrow.exit11_crit_edge.i, %Vec_PtrGrow.exit.i, %48
  %50 = phi ptr [ %.pre.i, %.Vec_PtrGrow.exit11_crit_edge.i ], [ %49, %48 ], [ %38, %Vec_PtrGrow.exit.i ]
  %51 = load i32, ptr %4, align 4, !tbaa !105
  %52 = add nsw i32 %51, 1
  store i32 %52, ptr %4, align 4, !tbaa !105
  %53 = sext i32 %51 to i64
  %54 = getelementptr inbounds ptr, ptr %50, i64 %53
  store ptr %20, ptr %54, align 8, !tbaa !108
  %.pre = load i32, ptr %13, align 4, !tbaa !98
  br label %55

55:                                               ; preds = %24, %21, %Vec_PtrPush.exit
  %56 = phi i32 [ %16, %24 ], [ %16, %21 ], [ %.pre, %Vec_PtrPush.exit ]
  %57 = phi i32 [ %17, %24 ], [ %17, %21 ], [ %52, %Vec_PtrPush.exit ]
  %indvars.iv.next = add nuw nsw i64 %indvars.iv, 1
  %58 = sext i32 %56 to i64
  %59 = icmp slt i64 %indvars.iv.next, %58
  br i1 %59, label %.lr.ph, label %.critedge2, !llvm.loop !110

.critedge2:                                       ; preds = %.lr.ph, %55, %8
  %60 = phi i32 [ %9, %8 ], [ %17, %.lr.ph ], [ %57, %55 ]
  %61 = getelementptr inbounds nuw i8, ptr %11, i64 64
  %62 = load i32, ptr %61, align 8, !tbaa !103
  %63 = icmp sgt i32 %62, 0
  br i1 %63, label %.lr.ph62, label %.critedge4

.lr.ph62:                                         ; preds = %.critedge2, %109
  %64 = phi i32 [ %110, %109 ], [ %62, %.critedge2 ]
  %65 = phi i32 [ %111, %109 ], [ %60, %.critedge2 ]
  %.161 = phi i32 [ %112, %109 ], [ 0, %.critedge2 ]
  %66 = load ptr, ptr %12, align 8, !tbaa !99
  %67 = load i32, ptr %13, align 4, !tbaa !98
  %68 = add nsw i32 %67, %.161
  %69 = sext i32 %68 to i64
  %70 = getelementptr inbounds ptr, ptr %66, i64 %69
  %71 = load ptr, ptr %70, align 8, !tbaa !100
  %.not35 = icmp eq ptr %71, null
  br i1 %.not35, label %.critedge4, label %72

72:                                               ; preds = %.lr.ph62
  %73 = getelementptr i8, ptr %71, i64 32
  %.val = load i32, ptr %73, align 8
  %74 = and i32 %.val, 7
  %.not57 = icmp eq i32 %74, 3
  br i1 %.not57, label %75, label %109

75:                                               ; preds = %72
  %.val41 = load ptr, ptr %71, align 8, !tbaa !83
  %76 = getelementptr i8, ptr %71, i64 40
  %.val42 = load i32, ptr %76, align 8, !tbaa !89
  %77 = getelementptr i8, ptr %.val41, i64 104
  %.val41.val = load i32, ptr %77, align 8, !tbaa !90
  %.not58 = icmp eq i32 %.val42, %.val41.val
  br i1 %.not58, label %109, label %78

78:                                               ; preds = %75
  store i32 %.val41.val, ptr %76, align 8, !tbaa !89
  %79 = getelementptr i8, ptr %71, i64 64
  %.val45 = load i32, ptr %79, align 8, !tbaa !103
  %80 = icmp sgt i32 %.val45, %2
  br i1 %80, label %109, label %81

81:                                               ; preds = %78
  %82 = load i32, ptr %1, align 8, !tbaa !109
  %83 = icmp eq i32 %65, %82
  br i1 %83, label %84, label %.Vec_PtrGrow.exit11_crit_edge.i48

.Vec_PtrGrow.exit11_crit_edge.i48:                ; preds = %81
  %.pre.i50 = load ptr, ptr %.phi.trans.insert.i, align 8, !tbaa !107
  br label %Vec_PtrPush.exit54

84:                                               ; preds = %81
  %85 = icmp slt i32 %65, 16
  br i1 %85, label %86, label %93

86:                                               ; preds = %84
  %87 = load ptr, ptr %.phi.trans.insert.i, align 8, !tbaa !107
  %.not9.i.i52 = icmp eq ptr %87, null
  br i1 %.not9.i.i52, label %90, label %88

88:                                               ; preds = %86
  %89 = tail call dereferenceable_or_null(128) ptr @realloc(ptr noundef nonnull %87, i64 noundef 128) #22
  br label %Vec_PtrGrow.exit.i53

90:                                               ; preds = %86
  %91 = tail call noalias dereferenceable_or_null(128) ptr @malloc(i64 noundef 128) #21
  br label %Vec_PtrGrow.exit.i53

Vec_PtrGrow.exit.i53:                             ; preds = %90, %88
  %92 = phi ptr [ %89, %88 ], [ %91, %90 ]
  store ptr %92, ptr %.phi.trans.insert.i, align 8, !tbaa !107
  store i32 16, ptr %1, align 8, !tbaa !109
  br label %Vec_PtrPush.exit54

93:                                               ; preds = %84
  %94 = shl nuw nsw i32 %65, 1
  %95 = load ptr, ptr %.phi.trans.insert.i, align 8, !tbaa !107
  %.not9.i10.i51 = icmp eq ptr %95, null
  %96 = zext nneg i32 %94 to i64
  %97 = shl nuw nsw i64 %96, 3
  br i1 %.not9.i10.i51, label %100, label %98

98:                                               ; preds = %93
  %99 = tail call ptr @realloc(ptr noundef nonnull %95, i64 noundef %97) #22
  br label %102

100:                                              ; preds = %93
  %101 = tail call noalias ptr @malloc(i64 noundef %97) #21
  br label %102

102:                                              ; preds = %100, %98
  %103 = phi ptr [ %99, %98 ], [ %101, %100 ]
  store ptr %103, ptr %.phi.trans.insert.i, align 8, !tbaa !107
  store i32 %94, ptr %1, align 8, !tbaa !109
  br label %Vec_PtrPush.exit54

Vec_PtrPush.exit54:                               ; preds = %.Vec_PtrGrow.exit11_crit_edge.i48, %Vec_PtrGrow.exit.i53, %102
  %104 = phi ptr [ %.pre.i50, %.Vec_PtrGrow.exit11_crit_edge.i48 ], [ %103, %102 ], [ %92, %Vec_PtrGrow.exit.i53 ]
  %105 = load i32, ptr %4, align 4, !tbaa !105
  %106 = add nsw i32 %105, 1
  store i32 %106, ptr %4, align 4, !tbaa !105
  %107 = sext i32 %105 to i64
  %108 = getelementptr inbounds ptr, ptr %104, i64 %107
  store ptr %71, ptr %108, align 8, !tbaa !108
  %.pre71 = load i32, ptr %61, align 8, !tbaa !103
  br label %109

109:                                              ; preds = %78, %75, %72, %Vec_PtrPush.exit54
  %110 = phi i32 [ %64, %78 ], [ %64, %75 ], [ %64, %72 ], [ %.pre71, %Vec_PtrPush.exit54 ]
  %111 = phi i32 [ %65, %78 ], [ %65, %75 ], [ %65, %72 ], [ %106, %Vec_PtrPush.exit54 ]
  %112 = add nuw nsw i32 %.161, 1
  %113 = icmp slt i32 %112, %110
  br i1 %113, label %.lr.ph62, label %.critedge4, !llvm.loop !111

.critedge4:                                       ; preds = %109, %.lr.ph62, %.critedge2
  %114 = phi i32 [ %60, %.critedge2 ], [ %111, %109 ], [ %65, %.lr.ph62 ]
  %indvars.iv.next69 = add nuw nsw i64 %indvars.iv68, 1
  %.val46 = load i32, ptr %5, align 4, !tbaa !105
  %115 = sext i32 %.val46 to i64
  %116 = icmp slt i64 %indvars.iv.next69, %115
  br i1 %116, label %8, label %.critedge, !llvm.loop !112

.critedge:                                        ; preds = %.critedge4, %3
  ret void
}